target datalayout = "e-m:e-p270:32:32-p271:32:32-p272:64:64-i64:64-i128:128-f80:128-n8:16:32:64-S128"
target triple = "x86_64-pc-linux-gnu"

%struct.pmix_object_t = type { %union.pthread_mutex_t, ptr, i32, %struct.pmix_tma }
%union.pthread_mutex_t = type { %struct.__pthread_mutex_s }
%struct.__pthread_mutex_s = type { i32, i32, i32, i32, i32, i16, i16, %struct.__pthread_internal_list }
%struct.__pthread_internal_list = type { ptr, ptr }
%struct.pmix_tma = type { ptr, ptr, ptr, ptr, ptr, ptr, ptr, ptr }
%struct.pmix_buffer_t = type { %struct.pmix_object_t, i8, ptr, ptr, ptr, i64, i64 }

@.str = private unnamed_addr constant [5 x i8] c"pmix\00", align 1

; Function Attrs: nounwind uwtable
define internal i32 @pack(ptr noundef %0, ptr noundef %1) #0 {
  %3 = alloca i32, align 4
  %4 = alloca ptr, align 8
  %5 = alloca ptr, align 8
  %6 = alloca i64, align 8
  %7 = alloca ptr, align 8
  %8 = alloca i32, align 4
  store ptr %0, ptr %4, align 8, !tbaa !31
  store ptr %1, ptr %5, align 8, !tbaa !3
  call void @llvm.lifetime.start.p0(i64 8, ptr %6) #12
  call void @llvm.lifetime.start.p0(i64 8, ptr %7) #12
  %9 = load ptr, ptr %5, align 8, !tbaa !3
  %10 = call i32 @strncmp(ptr noundef %9, ptr noundef @.str, i64 noundef 4) #13
  %11 = icmp ne i32 0, %10
  br i1 %11, label %12, label %13

12:                                               ; preds = %2
  store i32 -1366, ptr %3, align 4
  store i32 1, ptr %8, align 4
  br label %37

13:                                               ; preds = %2
  %14 = load ptr, ptr %5, align 8, !tbaa !3
  %15 = call i64 @strlen(ptr noundef %14) #13
  %16 = add i64 %15, 1
  store i64 %16, ptr %6, align 8, !tbaa !63
  %17 = load ptr, ptr %4, align 8, !tbaa !31
  %18 = load i64, ptr %6, align 8, !tbaa !63
  %19 = call ptr @pmix_bfrop_buffer_extend(ptr noundef %17, i64 noundef %18)
  store ptr %19, ptr %7, align 8, !tbaa !3
  %20 = load ptr, ptr %7, align 8, !tbaa !3
  %21 = icmp eq ptr null, %20
  br i1 %21, label %22, label %23

22:                                               ; preds = %13
  store i32 -32, ptr %3, align 4
  store i32 1, ptr %8, align 4
  br label %37

23:                                               ; preds = %13
  %24 = load ptr, ptr %7, align 8, !tbaa !3
  %25 = load ptr, ptr %5, align 8, !tbaa !3
  %26 = load i64, ptr %6, align 8, !tbaa !63
  call void @llvm.memcpy.p0.p0.i64(ptr align 1 %24, ptr align 1 %25, i64 %26, i1 false)
  %27 = load i64, ptr %6, align 8, !tbaa !63
  %28 = load ptr, ptr %4, align 8, !tbaa !31
  %29 = getelementptr inbounds nuw %struct.pmix_buffer_t, ptr %28, i32 0, i32 6
  %30 = load i64, ptr %29, align 8, !tbaa !64
  %31 = add i64 %30, %27
  store i64 %31, ptr %29, align 8, !tbaa !64
  %32 = load i64, ptr %6, align 8, !tbaa !63
  %33 = load ptr, ptr %4, align 8, !tbaa !31
  %34 = getelementptr inbounds nuw %struct.pmix_buffer_t, ptr %33, i32 0, i32 3
  %35 = load ptr, ptr %34, align 8, !tbaa !66
  %36 = getelementptr inbounds nuw i8, ptr %35, i64 %32
  store ptr %36, ptr %34, align 8, !tbaa !66
  store i32 0, ptr %3, align 4
  store i32 1, ptr %8, align 4
  br label %37

37:                                               ; preds = %23, %22, %12
  call void @llvm.lifetime.end.p0(i64 8, ptr %7) #12
  call void @llvm.lifetime.end.p0(i64 8, ptr %6) #12
  %38 = load i32, ptr %3, align 4
  ret i32 %38
}