; Function Attrs: nounwind uwtable
define internal range(i32 -1366, 1) i32 @pack(ptr noundef %0, ptr noundef readonly captures(none) %1) #0 {
  %3 = tail call i32 @strncmp(ptr noundef nonnull dereferenceable(1) %1, ptr noundef nonnull dereferenceable(5) @.str, i64 noundef 4) #19
  %.not = icmp eq i32 %3, 0
  br i1 %.not, label %4, label %16

4:                                                ; preds = %2
  %5 = tail call i64 @strlen(ptr noundef nonnull dereferenceable(1) %1) #19
  %6 = add i64 %5, 1
  %7 = tail call ptr @pmix_bfrop_buffer_extend(ptr noundef %0, i64 noundef %6) #18
  %8 = icmp eq ptr %7, null
  br i1 %8, label %16, label %9

9:                                                ; preds = %4
  tail call void @llvm.memcpy.p0.p0.i64(ptr nonnull align 1 %7, ptr nonnull align 1 %1, i64 %6, i1 false)
  %10 = getelementptr inbounds nuw i8, ptr %0, i64 160
  %11 = load i64, ptr %10, align 8, !tbaa !78
  %12 = add i64 %11, %6
  store i64 %12, ptr %10, align 8, !tbaa !78
  %13 = getelementptr inbounds nuw i8, ptr %0, i64 136
  %14 = load ptr, ptr %13, align 8, !tbaa !80
  %15 = getelementptr inbounds nuw i8, ptr %14, i64 %6
  store ptr %15, ptr %13, align 8, !tbaa !80
  br label %16

16:                                               ; preds = %4, %2, %9
  %.0 = phi i32 [ 0, %9 ], [ -1366, %2 ], [ -32, %4 ]
  ret i32 %.0
}